; Function Attrs: mustprogress uwtable
define noundef zeroext i1 @_ZNK2cv4gapi8GBackend4Priv11allowsMergeERKN3ade10TypedGraphIJNS_5gimpl8NodeKindENS5_11FusedIslandENS5_8DataSlotENS5_10IslandExecENS5_7EmitterENS5_4SinkENS5_15IslandsCompiledENS5_13DesyncIslEdgeENS3_6passes19TopologicalSortDataEEEERKNS3_6HandleINS3_4NodeEEESN_SN_(ptr noundef nonnull align 8 dereferenceable(8) %0, ptr nonnull readnone align 1 captures(none) %1, ptr nonnull readnone align 8 captures(none) %2, ptr nonnull readnone align 8 captures(none) %3, ptr nonnull readnone align 8 captures(none) %4) unnamed_addr #7 align 2 personality ptr @__gxx_personality_v0 {
  %6 = alloca %"class.std::__cxx11::basic_string", align 8
  %7 = alloca %"class.std::allocator", align 1
  %8 = load ptr, ptr %0, align 8, !tbaa !14
  %9 = getelementptr inbounds nuw i8, ptr %8, i64 48
  %10 = load ptr, ptr %9, align 8
  %11 = tail call noundef zeroext i1 %10(ptr noundef nonnull align 8 dereferenceable(8) %0)
  br i1 %11, label %22, label %12

12:                                               ; preds = %5
  call void @llvm.lifetime.start.p0(i64 32, ptr nonnull %6) #24
  call void @llvm.lifetime.start.p0(i64 1, ptr nonnull %7) #24
  call void @_ZNSt7__cxx1112basic_stringIcSt11char_traitsIcESaIcEEC2EPKcRKS3_(ptr noundef nonnull align 8 dereferenceable(32) %6, ptr noundef nonnull @.str.2, ptr noundef nonnull align 1 dereferenceable(1) %7)
  invoke void @_ZN2cv5errorEiRKNSt7__cxx1112basic_stringIcSt11char_traitsIcESaIcEEEPKcS9_i(i32 noundef -215, ptr noundef nonnull align 8 dereferenceable(32) %6, ptr noundef nonnull @__func__._ZNK2cv4gapi8GBackend4Priv11allowsMergeERKN3ade10TypedGraphIJNS_5gimpl8NodeKindENS5_11FusedIslandENS5_8DataSlotENS5_10IslandExecENS5_7EmitterENS5_4SinkENS5_15IslandsCompiledENS5_13DesyncIslEdgeENS3_6passes19TopologicalSortDataEEEERKNS3_6HandleINS3_4NodeEEESN_SN_, ptr noundef nonnull @.str.1, i32 noundef 79) #25
          to label %13 unwind label %14

13:                                               ; preds = %12
  unreachable

14:                                               ; preds = %12
  %15 = landingpad { ptr, i32 }
          cleanup
  %16 = load ptr, ptr %6, align 8, !tbaa !13
  %17 = getelementptr inbounds nuw i8, ptr %6, i64 16
  %18 = icmp eq ptr %16, %17
  br i1 %18, label %_ZNKSt7__cxx1112basic_stringIcSt11char_traitsIcESaIcEE11_M_is_localEv.exit.thread.i.i, label %_ZNKSt7__cxx1112basic_stringIcSt11char_traitsIcESaIcEE11_M_is_localEv.exit.i.i

_ZNKSt7__cxx1112basic_stringIcSt11char_traitsIcESaIcEE11_M_is_localEv.exit.thread.i.i: ; preds = %14
  %19 = getelementptr inbounds nuw i8, ptr %6, i64 8
  %20 = load i64, ptr %19, align 8, !tbaa !9
  %21 = icmp ult i64 %20, 16
  call void @llvm.assume(i1 %21)
  br label %_ZNSt7__cxx1112basic_stringIcSt11char_traitsIcESaIcEED2Ev.exit

_ZNKSt7__cxx1112basic_stringIcSt11char_traitsIcESaIcEE11_M_is_localEv.exit.i.i: ; preds = %14
  call void @_ZdlPv(ptr noundef %16) #26
  br label %_ZNSt7__cxx1112basic_stringIcSt11char_traitsIcESaIcEED2Ev.exit

_ZNSt7__cxx1112basic_stringIcSt11char_traitsIcESaIcEED2Ev.exit: ; preds = %_ZNKSt7__cxx1112basic_stringIcSt11char_traitsIcESaIcEE11_M_is_localEv.exit.i.i, %_ZNKSt7__cxx1112basic_stringIcSt11char_traitsIcESaIcEE11_M_is_localEv.exit.thread.i.i
  call void @llvm.lifetime.end.p0(i64 1, ptr nonnull %7) #24
  call void @llvm.lifetime.end.p0(i64 32, ptr nonnull %6) #24
  resume { ptr, i32 } %15

22:                                               ; preds = %5
  ret i1 true
}